target datalayout = "e-m:e-p270:32:32-p271:32:32-p272:64:64-i64:64-i128:128-f80:128-n8:16:32:64-S128"
target triple = "x86_64-pc-linux-gnu"

%"class.std::__1::error_code" = type { i32, ptr }
%"struct.std::__1::__fs::filesystem::detail::ErrorHandler.3" = type { ptr, ptr, ptr, ptr }

@.str.19 = private unnamed_addr constant [11 x i8] c"remove_all\00", align 1

; Function Attrs: mustprogress nounwind uwtable
define linkonce_odr hidden void @_ZNSt3__110error_code5clearB8ne210000Ev(ptr noundef nonnull align 8 dereferenceable(16) %0) #2 comdat align 2 {
  %2 = alloca ptr, align 8
  store ptr %0, ptr %2, align 8, !tbaa !10
  %3 = load ptr, ptr %2, align 8
  %4 = getelementptr inbounds nuw %"class.std::__1::error_code", ptr %3, i32 0, i32 0
  store i32 0, ptr %4, align 8, !tbaa !60
  %5 = call noundef nonnull align 8 dereferenceable(8) ptr @_ZNSt3__115system_categoryEv() #22
  %6 = getelementptr inbounds nuw %"class.std::__1::error_code", ptr %3, i32 0, i32 1
  store ptr %5, ptr %6, align 8, !tbaa !62
  ret void
}

; Function Attrs: mustprogress nounwind uwtable
define linkonce_odr hidden noundef zeroext i1 @_ZNKSt3__110error_codecvbB8ne210000Ev(ptr noundef nonnull align 8 dereferenceable(16) %0) #2 comdat align 2 {
  %2 = alloca ptr, align 8
  store ptr %0, ptr %2, align 8, !tbaa !10
  %3 = load ptr, ptr %2, align 8
  %4 = getelementptr inbounds nuw %"class.std::__1::error_code", ptr %3, i32 0, i32 0
  %5 = load i32, ptr %4, align 8, !tbaa !60
  %6 = icmp ne i32 %5, 0
  ret i1 %6
}

; Function Attrs: mustprogress nounwind uwtable
define linkonce_odr hidden void @_ZNSt3__110error_codeC2B8ne210000Ev(ptr noundef nonnull align 8 dereferenceable(16) %0) unnamed_addr #2 comdat align 2 {
  %2 = alloca ptr, align 8
  store ptr %0, ptr %2, align 8, !tbaa !10
  %3 = load ptr, ptr %2, align 8
  %4 = getelementptr inbounds nuw %"class.std::__1::error_code", ptr %3, i32 0, i32 0
  store i32 0, ptr %4, align 8, !tbaa !60
  %5 = getelementptr inbounds nuw %"class.std::__1::error_code", ptr %3, i32 0, i32 1
  %6 = call noundef nonnull align 8 dereferenceable(8) ptr @_ZNSt3__115system_categoryEv() #22
  store ptr %6, ptr %5, align 8, !tbaa !62
  ret void
}

; Function Attrs: mustprogress nounwind uwtable
define linkonce_odr hidden void @_ZNSt3__14__fs10filesystem6detail12ErrorHandlerImEC2B8ne210000EPKcPNS_10error_codeEPKNS1_4pathESB_(ptr noundef nonnull align 8 dereferenceable(32) %0, ptr noundef %1, ptr noundef %2, ptr noundef %3, ptr noundef %4) unnamed_addr #2 comdat align 2 {
  %6 = alloca ptr, align 8
  %7 = alloca ptr, align 8
  %8 = alloca ptr, align 8
  %9 = alloca ptr, align 8
  %10 = alloca ptr, align 8
  store ptr %0, ptr %6, align 8, !tbaa !109
  store ptr %1, ptr %7, align 8, !tbaa !13
  store ptr %2, ptr %8, align 8, !tbaa !10
  store ptr %3, ptr %9, align 8, !tbaa !5
  store ptr %4, ptr %10, align 8, !tbaa !5
  %11 = load ptr, ptr %6, align 8
  %12 = getelementptr inbounds nuw %"struct.std::__1::__fs::filesystem::detail::ErrorHandler.3", ptr %11, i32 0, i32 0
  %13 = load ptr, ptr %7, align 8, !tbaa !13
  store ptr %13, ptr %12, align 8, !tbaa !111
  %14 = getelementptr inbounds nuw %"struct.std::__1::__fs::filesystem::detail::ErrorHandler.3", ptr %11, i32 0, i32 1
  %15 = load ptr, ptr %8, align 8, !tbaa !10
  store ptr %15, ptr %14, align 8, !tbaa !113
  %16 = getelementptr inbounds nuw %"struct.std::__1::__fs::filesystem::detail::ErrorHandler.3", ptr %11, i32 0, i32 2
  %17 = load ptr, ptr %9, align 8, !tbaa !5
  store ptr %17, ptr %16, align 8, !tbaa !114
  %18 = getelementptr inbounds nuw %"struct.std::__1::__fs::filesystem::detail::ErrorHandler.3", ptr %11, i32 0, i32 3
  %19 = load ptr, ptr %10, align 8, !tbaa !5
  store ptr %19, ptr %18, align 8, !tbaa !115
  %20 = getelementptr inbounds nuw %"struct.std::__1::__fs::filesystem::detail::ErrorHandler.3", ptr %11, i32 0, i32 1
  %21 = load ptr, ptr %20, align 8, !tbaa !113
  %22 = icmp ne ptr %21, null
  br i1 %22, label %23, label %26

23:                                               ; preds = %5
  %24 = getelementptr inbounds nuw %"struct.std::__1::__fs::filesystem::detail::ErrorHandler.3", ptr %11, i32 0, i32 1
  %25 = load ptr, ptr %24, align 8, !tbaa !113
  call void @_ZNSt3__110error_code5clearB8ne210000Ev(ptr noundef nonnull align 8 dereferenceable(16) %25) #20
  br label %26

26:                                               ; preds = %23, %5
  ret void
}

; Function Attrs: mustprogress uwtable
define dso_local noundef i64 @_ZNSt3__14__fs10filesystem12__remove_allERKNS1_4pathEPNS_10error_codeE(ptr noundef nonnull align 8 dereferenceable(24) %0, ptr noundef %1) #0 {
  %3 = alloca i64, align 8
  %4 = alloca ptr, align 8
  %5 = alloca ptr, align 8
  %6 = alloca %"struct.std::__1::__fs::filesystem::detail::ErrorHandler.3", align 8
  %7 = alloca %"class.std::__1::error_code", align 8
  %8 = alloca i64, align 8
  %9 = alloca i32, align 4
  store ptr %0, ptr %4, align 8, !tbaa !5
  store ptr %1, ptr %5, align 8, !tbaa !10
  call void @llvm.lifetime.start.p0(i64 32, ptr %6) #20
  %10 = load ptr, ptr %5, align 8, !tbaa !10
  %11 = load ptr, ptr %4, align 8, !tbaa !5
  call void @_ZNSt3__14__fs10filesystem6detail12ErrorHandlerImEC2B8ne210000EPKcPNS_10error_codeEPKNS1_4pathESB_(ptr noundef nonnull align 8 dereferenceable(32) %6, ptr noundef @.str.19, ptr noundef %10, ptr noundef %11, ptr noundef null)
  call void @llvm.lifetime.start.p0(i64 16, ptr %7) #20
  call void @_ZNSt3__110error_codeC2B8ne210000Ev(ptr noundef nonnull align 8 dereferenceable(16) %7) #20
  call void @llvm.lifetime.start.p0(i64 8, ptr %8) #20
  %12 = load ptr, ptr %4, align 8, !tbaa !5
  %13 = call noundef i64 @_ZNSt3__14__fs10filesystem12_GLOBAL__N_115remove_all_implEiRKNS1_4pathERNS_10error_codeE(i32 noundef -100, ptr noundef nonnull align 8 dereferenceable(24) %12, ptr noundef nonnull align 8 dereferenceable(16) %7)
  store i64 %13, ptr %8, align 8, !tbaa !100
  %14 = call noundef zeroext i1 @_ZNKSt3__110error_codecvbB8ne210000Ev(ptr noundef nonnull align 8 dereferenceable(16) %7) #20
  br i1 %14, label %15, label %17

15:                                               ; preds = %2
  %16 = call noundef i64 @_ZNKSt3__14__fs10filesystem6detail12ErrorHandlerImE6reportB8ne210000ERKNS_10error_codeE(ptr noundef nonnull align 8 dereferenceable(32) %6, ptr noundef nonnull align 8 dereferenceable(16) %7)
  store i64 %16, ptr %3, align 8
  store i32 1, ptr %9, align 4
  br label %19

17:                                               ; preds = %2
  %18 = load i64, ptr %8, align 8, !tbaa !100
  store i64 %18, ptr %3, align 8
  store i32 1, ptr %9, align 4
  br label %19

19:                                               ; preds = %17, %15
  call void @llvm.lifetime.end.p0(i64 8, ptr %8) #20
  call void @llvm.lifetime.end.p0(i64 16, ptr %7) #20
  call void @llvm.lifetime.end.p0(i64 32, ptr %6) #20
  %20 = load i64, ptr %3, align 8
  ret i64 %20
}