; Function Attrs: mustprogress uwtable
define dso_local noundef i64 @_ZNSt3__14__fs10filesystem12__remove_allERKNS1_4pathEPNS_10error_codeE(ptr noundef nonnull align 8 dereferenceable(24) %0, ptr noundef %1) local_unnamed_addr #0 {
  %3 = alloca %"struct.std::__1::__fs::filesystem::detail::ErrorHandler.3", align 8
  %4 = alloca %"class.std::__1::error_code", align 8
  call void @llvm.lifetime.start.p0(i64 32, ptr nonnull %3) #28
  store ptr @.str.19, ptr %3, align 8, !tbaa !187
  %5 = getelementptr inbounds nuw i8, ptr %3, i64 8
  store ptr %1, ptr %5, align 8, !tbaa !189
  %6 = getelementptr inbounds nuw i8, ptr %3, i64 16
  store ptr %0, ptr %6, align 8, !tbaa !190
  %7 = getelementptr inbounds nuw i8, ptr %3, i64 24
  store ptr null, ptr %7, align 8, !tbaa !191
  %.not.i = icmp eq ptr %1, null
  br i1 %.not.i, label %._ZNSt3__14__fs10filesystem6detail12ErrorHandlerImEC2B8ne210000EPKcPNS_10error_codeEPKNS1_4pathESB_.exit_crit_edge, label %8

._ZNSt3__14__fs10filesystem6detail12ErrorHandlerImEC2B8ne210000EPKcPNS_10error_codeEPKNS1_4pathESB_.exit_crit_edge: ; preds = %2
  %.pre = tail call noundef nonnull align 8 dereferenceable(8) ptr @_ZNSt3__115system_categoryEv() #30
  br label %_ZNSt3__14__fs10filesystem6detail12ErrorHandlerImEC2B8ne210000EPKcPNS_10error_codeEPKNS1_4pathESB_.exit

8:                                                ; preds = %2
  store i32 0, ptr %1, align 8, !tbaa !8
  %9 = tail call noundef nonnull align 8 dereferenceable(8) ptr @_ZNSt3__115system_categoryEv() #30
  %10 = getelementptr inbounds nuw i8, ptr %1, i64 8
  store ptr %9, ptr %10, align 8, !tbaa !13
  br label %_ZNSt3__14__fs10filesystem6detail12ErrorHandlerImEC2B8ne210000EPKcPNS_10error_codeEPKNS1_4pathESB_.exit

_ZNSt3__14__fs10filesystem6detail12ErrorHandlerImEC2B8ne210000EPKcPNS_10error_codeEPKNS1_4pathESB_.exit: ; preds = %._ZNSt3__14__fs10filesystem6detail12ErrorHandlerImEC2B8ne210000EPKcPNS_10error_codeEPKNS1_4pathESB_.exit_crit_edge, %8
  %.pre-phi = phi ptr [ %.pre, %._ZNSt3__14__fs10filesystem6detail12ErrorHandlerImEC2B8ne210000EPKcPNS_10error_codeEPKNS1_4pathESB_.exit_crit_edge ], [ %9, %8 ]
  call void @llvm.lifetime.start.p0(i64 16, ptr nonnull %4) #28
  store i32 0, ptr %4, align 8, !tbaa !8
  %11 = getelementptr inbounds nuw i8, ptr %4, i64 8
  store ptr %.pre-phi, ptr %11, align 8, !tbaa !13
  %12 = call fastcc noundef i64 @_ZNSt3__14__fs10filesystem12_GLOBAL__N_115remove_all_implEiRKNS1_4pathERNS_10error_codeE(i32 noundef -100, ptr noundef nonnull align 8 dereferenceable(24) %0, ptr noundef nonnull align 8 dereferenceable(16) %4)
  %13 = load i32, ptr %4, align 8, !tbaa !8
  %.not = icmp eq i32 %13, 0
  br i1 %.not, label %16, label %14

14:                                               ; preds = %_ZNSt3__14__fs10filesystem6detail12ErrorHandlerImEC2B8ne210000EPKcPNS_10error_codeEPKNS1_4pathESB_.exit
  %15 = call noundef i64 @_ZNKSt3__14__fs10filesystem6detail12ErrorHandlerImE6reportB8ne210000ERKNS_10error_codeE(ptr noundef nonnull align 8 dereferenceable(32) %3, ptr noundef nonnull align 8 dereferenceable(16) %4)
  br label %16

16:                                               ; preds = %_ZNSt3__14__fs10filesystem6detail12ErrorHandlerImEC2B8ne210000EPKcPNS_10error_codeEPKNS1_4pathESB_.exit, %14
  %.0 = phi i64 [ %15, %14 ], [ %12, %_ZNSt3__14__fs10filesystem6detail12ErrorHandlerImEC2B8ne210000EPKcPNS_10error_codeEPKNS1_4pathESB_.exit ]
  call void @llvm.lifetime.end.p0(i64 16, ptr nonnull %4) #28
  call void @llvm.lifetime.end.p0(i64 32, ptr nonnull %3) #28
  ret i64 %.0
}